target datalayout = "e-m:e-p270:32:32-p271:32:32-p272:64:64-i64:64-i128:128-f80:128-n8:16:32:64-S128"
target triple = "x86_64-unknown-linux-gnu"

%"class.node::performance::PerformanceState" = type <{ %"class.node::AliasedBufferBase", %"class.node::AliasedBufferBase.0", %"class.node::AliasedBufferBase.3", i64, i16, [6 x i8] }>
%"class.node::AliasedBufferBase" = type { %"class.node::MemoryRetainer", ptr, i64, i64, ptr, %"class.v8::Global", ptr }
%"class.node::MemoryRetainer" = type { ptr }
%"class.v8::Global" = type { %"class.v8::PersistentBase" }
%"class.v8::PersistentBase" = type { %"class.v8::IndirectHandleBase" }
%"class.v8::IndirectHandleBase" = type { ptr }
%"class.node::AliasedBufferBase.0" = type { %"class.node::MemoryRetainer", ptr, i64, i64, ptr, %"class.v8::Global.1", ptr }
%"class.v8::Global.1" = type { %"class.v8::PersistentBase.2" }
%"class.v8::PersistentBase.2" = type { %"class.v8::IndirectHandleBase" }
%"class.node::AliasedBufferBase.3" = type { %"class.node::MemoryRetainer", ptr, i64, i64, ptr, %"class.v8::Global.4", ptr }
%"class.v8::Global.4" = type { %"class.v8::PersistentBase.5" }
%"class.v8::PersistentBase.5" = type { %"class.v8::IndirectHandleBase" }
%"struct.node::performance::PerformanceState::SerializeInfo" = type { i64, i64, i64 }
%"class.node::AliasedBufferBase<double, v8::Float64Array>::Reference" = type { ptr, i64 }

; Function Attrs: mustprogress nounwind uwtable
define linkonce_odr dso_local void @_ZN4node17AliasedBufferBaseIdN2v812Float64ArrayEE8SetValueEmd(ptr noundef nonnull align 8 dereferenceable(56) %this, i64 noundef %index, double noundef %value) #4 comdat align 2 {
entry:
  %this.addr = alloca ptr, align 8
  %index.addr = alloca i64, align 8
  %value.addr = alloca double, align 8
  store ptr %this, ptr %this.addr, align 8
  store i64 %index, ptr %index.addr, align 8
  store double %value, ptr %value.addr, align 8
  %this1 = load ptr, ptr %this.addr, align 8
  %0 = load double, ptr %value.addr, align 8
  %buffer_ = getelementptr inbounds %"class.node::AliasedBufferBase.0", ptr %this1, i32 0, i32 4
  %1 = load ptr, ptr %buffer_, align 8
  %2 = load i64, ptr %index.addr, align 8
  %arrayidx = getelementptr inbounds double, ptr %1, i64 %2
  store double %0, ptr %arrayidx, align 8
  ret void
}

; Function Attrs: mustprogress nounwind uwtable
define linkonce_odr dso_local void @_ZN4node17AliasedBufferBaseIdN2v812Float64ArrayEE9ReferenceC2EPS3_m(ptr noundef nonnull align 8 dereferenceable(16) %this, ptr noundef %aliased_buffer, i64 noundef %index) unnamed_addr #4 comdat align 2 {
entry:
  %this.addr = alloca ptr, align 8
  %aliased_buffer.addr = alloca ptr, align 8
  %index.addr = alloca i64, align 8
  store ptr %this, ptr %this.addr, align 8
  store ptr %aliased_buffer, ptr %aliased_buffer.addr, align 8
  store i64 %index, ptr %index.addr, align 8
  %this1 = load ptr, ptr %this.addr, align 8
  %aliased_buffer_ = getelementptr inbounds %"class.node::AliasedBufferBase<double, v8::Float64Array>::Reference", ptr %this1, i32 0, i32 0
  %0 = load ptr, ptr %aliased_buffer.addr, align 8
  store ptr %0, ptr %aliased_buffer_, align 8
  %index_ = getelementptr inbounds %"class.node::AliasedBufferBase<double, v8::Float64Array>::Reference", ptr %this1, i32 0, i32 1
  %1 = load i64, ptr %index.addr, align 8
  store i64 %1, ptr %index_, align 8
  ret void
}

; Function Attrs: mustprogress nounwind uwtable
define linkonce_odr dso_local noundef nonnull align 8 dereferenceable(16) ptr @_ZN4node17AliasedBufferBaseIdN2v812Float64ArrayEE9ReferenceaSERKd(ptr noundef nonnull align 8 dereferenceable(16) %this, ptr noundef nonnull align 8 dereferenceable(8) %val) #4 comdat align 2 {
entry:
  %this.addr = alloca ptr, align 8
  %val.addr = alloca ptr, align 8
  store ptr %this, ptr %this.addr, align 8
  store ptr %val, ptr %val.addr, align 8
  %this1 = load ptr, ptr %this.addr, align 8
  %aliased_buffer_ = getelementptr inbounds %"class.node::AliasedBufferBase<double, v8::Float64Array>::Reference", ptr %this1, i32 0, i32 0
  %0 = load ptr, ptr %aliased_buffer_, align 8
  %index_ = getelementptr inbounds %"class.node::AliasedBufferBase<double, v8::Float64Array>::Reference", ptr %this1, i32 0, i32 1
  %1 = load i64, ptr %index_, align 8
  %2 = load ptr, ptr %val.addr, align 8
  %3 = load double, ptr %2, align 8
  call void @_ZN4node17AliasedBufferBaseIdN2v812Float64ArrayEE8SetValueEmd(ptr noundef nonnull align 8 dereferenceable(56) %0, i64 noundef %1, double noundef %3)
  ret ptr %this1
}

; Function Attrs: mustprogress nounwind uwtable
define linkonce_odr dso_local void @_ZN4node17AliasedBufferBaseIdN2v812Float64ArrayEEixEm(ptr noalias sret(%"class.node::AliasedBufferBase<double, v8::Float64Array>::Reference") align 8 %agg.result, ptr noundef nonnull align 8 dereferenceable(56) %this, i64 noundef %index) #4 comdat align 2 {
entry:
  %result.ptr = alloca ptr, align 8
  %this.addr = alloca ptr, align 8
  %index.addr = alloca i64, align 8
  store ptr %agg.result, ptr %result.ptr, align 8
  store ptr %this, ptr %this.addr, align 8
  store i64 %index, ptr %index.addr, align 8
  %this1 = load ptr, ptr %this.addr, align 8
  %0 = load i64, ptr %index.addr, align 8
  call void @_ZN4node17AliasedBufferBaseIdN2v812Float64ArrayEE9ReferenceC2EPS3_m(ptr noundef nonnull align 8 dereferenceable(16) %agg.result, ptr noundef %this1, i64 noundef %0)
  ret void
}

; Function Attrs: mustprogress nounwind uwtable
define linkonce_odr dso_local noundef i64 @_ZNK4node17AliasedBufferBaseIdN2v812Float64ArrayEE6LengthEv(ptr noundef nonnull align 8 dereferenceable(56) %this) #4 comdat align 2 {
entry:
  %this.addr = alloca ptr, align 8
  store ptr %this, ptr %this.addr, align 8
  %this1 = load ptr, ptr %this.addr, align 8
  %count_ = getelementptr inbounds %"class.node::AliasedBufferBase.0", ptr %this1, i32 0, i32 2
  %0 = load i64, ptr %count_, align 8
  ret i64 %0
}

; Function Attrs: mustprogress nounwind uwtable
define dso_local void @_ZN4node11performance16PerformanceState10InitializeEm(ptr noundef nonnull align 8 dereferenceable(178) %this, i64 noundef %time_origin) #4 align 2 {
entry:
  %this.addr = alloca ptr, align 8
  %time_origin.addr = alloca i64, align 8
  %ref.tmp = alloca double, align 8
  %ref.tmp2 = alloca %"class.node::AliasedBufferBase<double, v8::Float64Array>::Reference", align 8
  store ptr %this, ptr %this.addr, align 8
  store i64 %time_origin, ptr %time_origin.addr, align 8
  %this1 = load ptr, ptr %this.addr, align 8
  %0 = load i64, ptr %time_origin.addr, align 8
  %conv = uitofp i64 %0 to double
  store double %conv, ptr %ref.tmp, align 8
  %milestones = getelementptr inbounds %"class.node::performance::PerformanceState", ptr %this1, i32 0, i32 1
  call void @_ZN4node17AliasedBufferBaseIdN2v812Float64ArrayEEixEm(ptr sret(%"class.node::AliasedBufferBase<double, v8::Float64Array>::Reference") align 8 %ref.tmp2, ptr noundef nonnull align 8 dereferenceable(56) %milestones, i64 noundef 0)
  %call = call noundef nonnull align 8 dereferenceable(16) ptr @_ZN4node17AliasedBufferBaseIdN2v812Float64ArrayEE9ReferenceaSERKd(ptr noundef nonnull align 8 dereferenceable(16) %ref.tmp2, ptr noundef nonnull align 8 dereferenceable(8) %ref.tmp)
  ret void
}

; Function Attrs: mustprogress nounwind uwtable
define dso_local void @_ZN4node11performance16PerformanceState15ResetMilestonesEv(ptr noundef nonnull align 8 dereferenceable(178) %this) #4 align 2 {
entry:
  %this.addr = alloca ptr, align 8
  %milestones_length = alloca i64, align 8
  %i = alloca i64, align 8
  %ref.tmp = alloca double, align 8
  %ref.tmp2 = alloca %"class.node::AliasedBufferBase<double, v8::Float64Array>::Reference", align 8
  store ptr %this, ptr %this.addr, align 8
  %this1 = load ptr, ptr %this.addr, align 8
  %milestones = getelementptr inbounds %"class.node::performance::PerformanceState", ptr %this1, i32 0, i32 1
  %call = call noundef i64 @_ZNK4node17AliasedBufferBaseIdN2v812Float64ArrayEE6LengthEv(ptr noundef nonnull align 8 dereferenceable(56) %milestones)
  store i64 %call, ptr %milestones_length, align 8
  store i64 0, ptr %i, align 8
  br label %for.cond

for.cond:                                         ; preds = %for.inc, %entry
  %0 = load i64, ptr %i, align 8
  %1 = load i64, ptr %milestones_length, align 8
  %cmp = icmp ult i64 %0, %1
  br i1 %cmp, label %for.body, label %for.end

for.body:                                         ; preds = %for.cond
  store double -1.000000e+00, ptr %ref.tmp, align 8
  %milestones3 = getelementptr inbounds %"class.node::performance::PerformanceState", ptr %this1, i32 0, i32 1
  %2 = load i64, ptr %i, align 8
  call void @_ZN4node17AliasedBufferBaseIdN2v812Float64ArrayEEixEm(ptr sret(%"class.node::AliasedBufferBase<double, v8::Float64Array>::Reference") align 8 %ref.tmp2, ptr noundef nonnull align 8 dereferenceable(56) %milestones3, i64 noundef %2)
  %call4 = call noundef nonnull align 8 dereferenceable(16) ptr @_ZN4node17AliasedBufferBaseIdN2v812Float64ArrayEE9ReferenceaSERKd(ptr noundef nonnull align 8 dereferenceable(16) %ref.tmp2, ptr noundef nonnull align 8 dereferenceable(8) %ref.tmp)
  br label %for.inc

for.inc:                                          ; preds = %for.body
  %3 = load i64, ptr %i, align 8
  %inc = add i64 %3, 1
  store i64 %inc, ptr %i, align 8
  br label %for.cond, !llvm.loop !5

for.end:                                          ; preds = %for.cond
  ret void
}

; Function Attrs: mustprogress nounwind uwtable
define dso_local void @_ZN4node11performance16PerformanceStateC2EPN2v87IsolateEmPKNS1_13SerializeInfoE(ptr noundef nonnull align 8 dereferenceable(178) %this, ptr noundef %isolate, i64 noundef %time_origin, ptr noundef %info) unnamed_addr #4 align 2 {
entry:
  %this.addr = alloca ptr, align 8
  %isolate.addr = alloca ptr, align 8
  %time_origin.addr = alloca i64, align 8
  %info.addr = alloca ptr, align 8
  store ptr %this, ptr %this.addr, align 8
  store ptr %isolate, ptr %isolate.addr, align 8
  store i64 %time_origin, ptr %time_origin.addr, align 8
  store ptr %info, ptr %info.addr, align 8
  %this1 = load ptr, ptr %this.addr, align 8
  %root = getelementptr inbounds %"class.node::performance::PerformanceState", ptr %this1, i32 0, i32 0
  %0 = load ptr, ptr %isolate.addr, align 8
  %1 = load ptr, ptr %info.addr, align 8
  %cmp = icmp eq ptr %1, null
  br i1 %cmp, label %cond.true, label %cond.false

cond.true:                                        ; preds = %entry
  br label %cond.end

cond.false:                                       ; preds = %entry
  %2 = load ptr, ptr %info.addr, align 8
  %root2 = getelementptr inbounds %"struct.node::performance::PerformanceState::SerializeInfo", ptr %2, i32 0, i32 0
  br label %cond.end

cond.end:                                         ; preds = %cond.false, %cond.true
  %cond = phi ptr [ null, %cond.true ], [ %root2, %cond.false ]
  call void @_ZN4node17AliasedBufferBaseIhN2v810Uint8ArrayEEC2EPNS1_7IsolateEmPKm(ptr noundef nonnull align 8 dereferenceable(56) %root, ptr noundef %0, i64 noundef 80, ptr noundef %cond)
  %milestones = getelementptr inbounds %"class.node::performance::PerformanceState", ptr %this1, i32 0, i32 1
  %3 = load ptr, ptr %isolate.addr, align 8
  %root3 = getelementptr inbounds %"class.node::performance::PerformanceState", ptr %this1, i32 0, i32 0
  %4 = load ptr, ptr %info.addr, align 8
  %cmp4 = icmp eq ptr %4, null
  br i1 %cmp4, label %cond.true5, label %cond.false6

cond.true5:                                       ; preds = %cond.end
  br label %cond.end8

cond.false6:                                      ; preds = %cond.end
  %5 = load ptr, ptr %info.addr, align 8
  %milestones7 = getelementptr inbounds %"struct.node::performance::PerformanceState::SerializeInfo", ptr %5, i32 0, i32 1
  br label %cond.end8

cond.end8:                                        ; preds = %cond.false6, %cond.true5
  %cond9 = phi ptr [ null, %cond.true5 ], [ %milestones7, %cond.false6 ]
  call void @_ZN4node17AliasedBufferBaseIdN2v812Float64ArrayEEC2EPNS1_7IsolateEmmRKNS0_IhNS1_10Uint8ArrayEEEPKm(ptr noundef nonnull align 8 dereferenceable(56) %milestones, ptr noundef %3, i64 noundef 0, i64 noundef 7, ptr noundef nonnull align 8 dereferenceable(56) %root3, ptr noundef %cond9)
  %observers = getelementptr inbounds %"class.node::performance::PerformanceState", ptr %this1, i32 0, i32 2
  %6 = load ptr, ptr %isolate.addr, align 8
  %root10 = getelementptr inbounds %"class.node::performance::PerformanceState", ptr %this1, i32 0, i32 0
  %7 = load ptr, ptr %info.addr, align 8
  %cmp11 = icmp eq ptr %7, null
  br i1 %cmp11, label %cond.true12, label %cond.false13

cond.true12:                                      ; preds = %cond.end8
  br label %cond.end15

cond.false13:                                     ; preds = %cond.end8
  %8 = load ptr, ptr %info.addr, align 8
  %observers14 = getelementptr inbounds %"struct.node::performance::PerformanceState::SerializeInfo", ptr %8, i32 0, i32 2
  br label %cond.end15

cond.end15:                                       ; preds = %cond.false13, %cond.true12
  %cond16 = phi ptr [ null, %cond.true12 ], [ %observers14, %cond.false13 ]
  call void @_ZN4node17AliasedBufferBaseIjN2v811Uint32ArrayEEC2EPNS1_7IsolateEmmRKNS0_IhNS1_10Uint8ArrayEEEPKm(ptr noundef nonnull align 8 dereferenceable(56) %observers, ptr noundef %6, i64 noundef 56, i64 noundef 5, ptr noundef nonnull align 8 dereferenceable(56) %root10, ptr noundef %cond16)
  %performance_last_gc_start_mark = getelementptr inbounds %"class.node::performance::PerformanceState", ptr %this1, i32 0, i32 3
  store i64 0, ptr %performance_last_gc_start_mark, align 8
  %current_gc_type = getelementptr inbounds %"class.node::performance::PerformanceState", ptr %this1, i32 0, i32 4
  store i16 0, ptr %current_gc_type, align 8
  %9 = load ptr, ptr %info.addr, align 8
  %cmp17 = icmp eq ptr %9, null
  br i1 %cmp17, label %if.then, label %if.end

if.then:                                          ; preds = %cond.end15
  call void @_ZN4node11performance16PerformanceState15ResetMilestonesEv(ptr noundef nonnull align 8 dereferenceable(178) %this1)
  %10 = load i64, ptr %time_origin.addr, align 8
  call void @_ZN4node11performance16PerformanceState10InitializeEm(ptr noundef nonnull align 8 dereferenceable(178) %this1, i64 noundef %10)
  br label %if.end

if.end:                                           ; preds = %if.then, %cond.end15
  ret void
}