; Function Attrs: mustprogress nounwind uwtable
define dso_local void @_ZN4node11performance16PerformanceStateC2EPN2v87IsolateEmPKNS1_13SerializeInfoE(ptr noundef nonnull align 8 dereferenceable(178) %this, ptr noundef %isolate, i64 noundef %time_origin, ptr noundef %info) unnamed_addr #3 align 2 {
entry:
  %cmp = icmp eq ptr %info, null
  tail call void @_ZN4node17AliasedBufferBaseIhN2v810Uint8ArrayEEC2EPNS1_7IsolateEmPKm(ptr noundef nonnull align 8 dereferenceable(56) %this, ptr noundef %isolate, i64 noundef 80, ptr noundef %info)
  %milestones = getelementptr inbounds i8, ptr %this, i64 56
  %milestones7 = getelementptr inbounds i8, ptr %info, i64 8
  %cond9 = select i1 %cmp, ptr null, ptr %milestones7
  tail call void @_ZN4node17AliasedBufferBaseIdN2v812Float64ArrayEEC2EPNS1_7IsolateEmmRKNS0_IhNS1_10Uint8ArrayEEEPKm(ptr noundef nonnull align 8 dereferenceable(56) %milestones, ptr noundef %isolate, i64 noundef 0, i64 noundef 7, ptr noundef nonnull align 8 dereferenceable(56) %this, ptr noundef %cond9)
  %observers = getelementptr inbounds i8, ptr %this, i64 112
  %observers14 = getelementptr inbounds i8, ptr %info, i64 16
  %cond16 = select i1 %cmp, ptr null, ptr %observers14
  tail call void @_ZN4node17AliasedBufferBaseIjN2v811Uint32ArrayEEC2EPNS1_7IsolateEmmRKNS0_IhNS1_10Uint8ArrayEEEPKm(ptr noundef nonnull align 8 dereferenceable(56) %observers, ptr noundef %isolate, i64 noundef 56, i64 noundef 5, ptr noundef nonnull align 8 dereferenceable(56) %this, ptr noundef %cond16)
  %performance_last_gc_start_mark = getelementptr inbounds i8, ptr %this, i64 168
  store i64 0, ptr %performance_last_gc_start_mark, align 8
  %current_gc_type = getelementptr inbounds i8, ptr %this, i64 176
  store i16 0, ptr %current_gc_type, align 8
  br i1 %cmp, label %if.then, label %if.end

if.then:                                          ; preds = %entry
  %count_.i.i = getelementptr inbounds i8, ptr %this, i64 72
  %0 = load i64, ptr %count_.i.i, align 8
  %cmp3.not.i = icmp eq i64 %0, 0
  br i1 %cmp3.not.i, label %_ZN4node11performance16PerformanceState15ResetMilestonesEv.exit, label %for.body.lr.ph.i

for.body.lr.ph.i:                                 ; preds = %if.then
  %buffer_.i.i.i = getelementptr inbounds i8, ptr %this, i64 88
  br label %for.body.i

for.body.i:                                       ; preds = %for.body.i, %for.body.lr.ph.i
  %i.04.i = phi i64 [ 0, %for.body.lr.ph.i ], [ %inc.i, %for.body.i ]
  %1 = load ptr, ptr %buffer_.i.i.i, align 8
  %arrayidx.i.i.i = getelementptr inbounds double, ptr %1, i64 %i.04.i
  store double -1.000000e+00, ptr %arrayidx.i.i.i, align 8
  %inc.i = add nuw i64 %i.04.i, 1
  %exitcond.not.i = icmp eq i64 %inc.i, %0
  br i1 %exitcond.not.i, label %_ZN4node11performance16PerformanceState15ResetMilestonesEv.exit, label %for.body.i, !llvm.loop !5

_ZN4node11performance16PerformanceState15ResetMilestonesEv.exit: ; preds = %for.body.i, %if.then
  %conv.i = uitofp i64 %time_origin to double
  %buffer_.i.i.i9 = getelementptr inbounds i8, ptr %this, i64 88
  %2 = load ptr, ptr %buffer_.i.i.i9, align 8
  store double %conv.i, ptr %2, align 8
  br label %if.end

if.end:                                           ; preds = %_ZN4node11performance16PerformanceState15ResetMilestonesEv.exit, %entry
  ret void
}